(dp1
S'test_data'
p2
(lp3
(lp4
S'C3_sy/test/melt/1.jpg'
p5
aI1
aa(lp6
S'C3_sy/test/melt/10.jpg'
p7
aI1
aa(lp8
S'C3_sy/test/melt/11.jpg'
p9
aI1
aa(lp10
S'C3_sy/test/melt/12.jpg'
p11
aI1
aa(lp12
S'C3_sy/test/melt/13.jpg'
p13
aI1
aa(lp14
S'C3_sy/test/melt/14.jpg'
p15
aI1
aa(lp16
S'C3_sy/test/melt/15.jpg'
p17
aI1
aa(lp18
S'C3_sy/test/melt/16.jpg'
p19
aI1
aa(lp20
S'C3_sy/test/melt/17.jpg'
p21
aI1
aa(lp22
S'C3_sy/test/melt/18.jpg'
p23
aI1
aa(lp24
S'C3_sy/test/melt/19.jpg'
p25
aI1
aa(lp26
S'C3_sy/test/melt/2.jpg'
p27
aI1
aa(lp28
S'C3_sy/test/melt/20.jpg'
p29
aI1
aa(lp30
S'C3_sy/test/melt/21.jpg'
p31
aI1
aa(lp32
S'C3_sy/test/melt/22.jpg'
p33
aI1
aa(lp34
S'C3_sy/test/melt/23.jpg'
p35
aI1
aa(lp36
S'C3_sy/test/melt/24.jpg'
p37
aI1
aa(lp38
S'C3_sy/test/melt/25.jpg'
p39
aI1
aa(lp40
S'C3_sy/test/melt/26.jpg'
p41
aI1
aa(lp42
S'C3_sy/test/melt/27.jpg'
p43
aI1
aa(lp44
S'C3_sy/test/melt/28.jpg'
p45
aI1
aa(lp46
S'C3_sy/test/melt/29.jpg'
p47
aI1
aa(lp48
S'C3_sy/test/melt/3.jpg'
p49
aI1
aa(lp50
S'C3_sy/test/melt/30.jpg'
p51
aI1
aa(lp52
S'C3_sy/test/melt/31.jpg'
p53
aI1
aa(lp54
S'C3_sy/test/melt/32.jpg'
p55
aI1
aa(lp56
S'C3_sy/test/melt/33.jpg'
p57
aI1
aa(lp58
S'C3_sy/test/melt/34.jpg'
p59
aI1
aa(lp60
S'C3_sy/test/melt/35.jpg'
p61
aI1
aa(lp62
S'C3_sy/test/melt/36.jpg'
p63
aI1
aa(lp64
S'C3_sy/test/melt/37.jpg'
p65
aI1
aa(lp66
S'C3_sy/test/melt/38.jpg'
p67
aI1
aa(lp68
S'C3_sy/test/melt/39.jpg'
p69
aI1
aa(lp70
S'C3_sy/test/melt/4.jpg'
p71
aI1
aa(lp72
S'C3_sy/test/melt/40.jpg'
p73
aI1
aa(lp74
S'C3_sy/test/melt/41.jpg'
p75
aI1
aa(lp76
S'C3_sy/test/melt/42.jpg'
p77
aI1
aa(lp78
S'C3_sy/test/melt/43.jpg'
p79
aI1
aa(lp80
S'C3_sy/test/melt/44.jpg'
p81
aI1
aa(lp82
S'C3_sy/test/melt/45.jpg'
p83
aI1
aa(lp84
S'C3_sy/test/melt/46.jpg'
p85
aI1
aa(lp86
S'C3_sy/test/melt/47.jpg'
p87
aI1
aa(lp88
S'C3_sy/test/melt/48.jpg'
p89
aI1
aa(lp90
S'C3_sy/test/melt/49.jpg'
p91
aI1
aa(lp92
S'C3_sy/test/melt/5.jpg'
p93
aI1
aa(lp94
S'C3_sy/test/melt/50.jpg'
p95
aI1
aa(lp96
S'C3_sy/test/melt/51.jpg'
p97
aI1
aa(lp98
S'C3_sy/test/melt/52.jpg'
p99
aI1
aa(lp100
S'C3_sy/test/melt/53.jpg'
p101
aI1
aa(lp102
S'C3_sy/test/melt/54.jpg'
p103
aI1
aa(lp104
S'C3_sy/test/melt/55.jpg'
p105
aI1
aa(lp106
S'C3_sy/test/melt/56.jpg'
p107
aI1
aa(lp108
S'C3_sy/test/melt/57.jpg'
p109
aI1
aa(lp110
S'C3_sy/test/melt/58.jpg'
p111
aI1
aa(lp112
S'C3_sy/test/melt/6.jpg'
p113
aI1
aa(lp114
S'C3_sy/test/melt/7.jpg'
p115
aI1
aa(lp116
S'C3_sy/test/melt/8.jpg'
p117
aI1
aa(lp118
S'C3_sy/test/melt/9.jpg'
p119
aI1
aa(lp120
S'C3_sy/test/plus_metal/1.jpg'
p121
aI2
aa(lp122
S'C3_sy/test/plus_metal/10.jpg'
p123
aI2
aa(lp124
S'C3_sy/test/plus_metal/11.jpg'
p125
aI2
aa(lp126
S'C3_sy/test/plus_metal/12.jpg'
p127
aI2
aa(lp128
S'C3_sy/test/plus_metal/13.jpg'
p129
aI2
aa(lp130
S'C3_sy/test/plus_metal/14.jpg'
p131
aI2
aa(lp132
S'C3_sy/test/plus_metal/15.jpg'
p133
aI2
aa(lp134
S'C3_sy/test/plus_metal/16.jpg'
p135
aI2
aa(lp136
S'C3_sy/test/plus_metal/17.jpg'
p137
aI2
aa(lp138
S'C3_sy/test/plus_metal/18.jpg'
p139
aI2
aa(lp140
S'C3_sy/test/plus_metal/19.jpg'
p141
aI2
aa(lp142
S'C3_sy/test/plus_metal/2.jpg'
p143
aI2
aa(lp144
S'C3_sy/test/plus_metal/20.jpg'
p145
aI2
aa(lp146
S'C3_sy/test/plus_metal/21.jpg'
p147
aI2
aa(lp148
S'C3_sy/test/plus_metal/22.jpg'
p149
aI2
aa(lp150
S'C3_sy/test/plus_metal/23.jpg'
p151
aI2
aa(lp152
S'C3_sy/test/plus_metal/24.jpg'
p153
aI2
aa(lp154
S'C3_sy/test/plus_metal/25.jpg'
p155
aI2
aa(lp156
S'C3_sy/test/plus_metal/26.jpg'
p157
aI2
aa(lp158
S'C3_sy/test/plus_metal/27.jpg'
p159
aI2
aa(lp160
S'C3_sy/test/plus_metal/28.jpg'
p161
aI2
aa(lp162
S'C3_sy/test/plus_metal/29.jpg'
p163
aI2
aa(lp164
S'C3_sy/test/plus_metal/3.jpg'
p165
aI2
aa(lp166
S'C3_sy/test/plus_metal/30.jpg'
p167
aI2
aa(lp168
S'C3_sy/test/plus_metal/31.jpg'
p169
aI2
aa(lp170
S'C3_sy/test/plus_metal/32.jpg'
p171
aI2
aa(lp172
S'C3_sy/test/plus_metal/33.jpg'
p173
aI2
aa(lp174
S'C3_sy/test/plus_metal/34.jpg'
p175
aI2
aa(lp176
S'C3_sy/test/plus_metal/35.jpg'
p177
aI2
aa(lp178
S'C3_sy/test/plus_metal/36.jpg'
p179
aI2
aa(lp180
S'C3_sy/test/plus_metal/37.jpg'
p181
aI2
aa(lp182
S'C3_sy/test/plus_metal/38.jpg'
p183
aI2
aa(lp184
S'C3_sy/test/plus_metal/39.jpg'
p185
aI2
aa(lp186
S'C3_sy/test/plus_metal/4.jpg'
p187
aI2
aa(lp188
S'C3_sy/test/plus_metal/40.jpg'
p189
aI2
aa(lp190
S'C3_sy/test/plus_metal/41.jpg'
p191
aI2
aa(lp192
S'C3_sy/test/plus_metal/42.jpg'
p193
aI2
aa(lp194
S'C3_sy/test/plus_metal/43.jpg'
p195
aI2
aa(lp196
S'C3_sy/test/plus_metal/44.jpg'
p197
aI2
aa(lp198
S'C3_sy/test/plus_metal/45.jpg'
p199
aI2
aa(lp200
S'C3_sy/test/plus_metal/46.jpg'
p201
aI2
aa(lp202
S'C3_sy/test/plus_metal/47.jpg'
p203
aI2
aa(lp204
S'C3_sy/test/plus_metal/48.jpg'
p205
aI2
aa(lp206
S'C3_sy/test/plus_metal/49.jpg'
p207
aI2
aa(lp208
S'C3_sy/test/plus_metal/5.jpg'
p209
aI2
aa(lp210
S'C3_sy/test/plus_metal/50.jpg'
p211
aI2
aa(lp212
S'C3_sy/test/plus_metal/51.jpg'
p213
aI2
aa(lp214
S'C3_sy/test/plus_metal/52.jpg'
p215
aI2
aa(lp216
S'C3_sy/test/plus_metal/6.jpg'
p217
aI2
aa(lp218
S'C3_sy/test/plus_metal/7.jpg'
p219
aI2
aa(lp220
S'C3_sy/test/plus_metal/8.jpg'
p221
aI2
aa(lp222
S'C3_sy/test/plus_metal/9.jpg'
p223
aI2
aa(lp224
S'C3_sy/test/shadowing/1.jpg'
p225
aI3
aa(lp226
S'C3_sy/test/shadowing/10.jpg'
p227
aI3
aa(lp228
S'C3_sy/test/shadowing/11.jpg'
p229
aI3
aa(lp230
S'C3_sy/test/shadowing/12.jpg'
p231
aI3
aa(lp232
S'C3_sy/test/shadowing/13.jpg'
p233
aI3
aa(lp234
S'C3_sy/test/shadowing/14.jpg'
p235
aI3
aa(lp236
S'C3_sy/test/shadowing/15.jpg'
p237
aI3
aa(lp238
S'C3_sy/test/shadowing/16.jpg'
p239
aI3
aa(lp240
S'C3_sy/test/shadowing/17.jpg'
p241
aI3
aa(lp242
S'C3_sy/test/shadowing/18.jpg'
p243
aI3
aa(lp244
S'C3_sy/test/shadowing/19.jpg'
p245
aI3
aa(lp246
S'C3_sy/test/shadowing/2.jpg'
p247
aI3
aa(lp248
S'C3_sy/test/shadowing/20.jpg'
p249
aI3
aa(lp250
S'C3_sy/test/shadowing/21.jpg'
p251
aI3
aa(lp252
S'C3_sy/test/shadowing/22.jpg'
p253
aI3
aa(lp254
S'C3_sy/test/shadowing/23.jpg'
p255
aI3
aa(lp256
S'C3_sy/test/shadowing/24.jpg'
p257
aI3
aa(lp258
S'C3_sy/test/shadowing/25.jpg'
p259
aI3
aa(lp260
S'C3_sy/test/shadowing/26.jpg'
p261
aI3
aa(lp262
S'C3_sy/test/shadowing/27.jpg'
p263
aI3
aa(lp264
S'C3_sy/test/shadowing/28.jpg'
p265
aI3
aa(lp266
S'C3_sy/test/shadowing/29.jpg'
p267
aI3
aa(lp268
S'C3_sy/test/shadowing/3.jpg'
p269
aI3
aa(lp270
S'C3_sy/test/shadowing/30.jpg'
p271
aI3
aa(lp272
S'C3_sy/test/shadowing/31.jpg'
p273
aI3
aa(lp274
S'C3_sy/test/shadowing/32.jpg'
p275
aI3
aa(lp276
S'C3_sy/test/shadowing/33.jpg'
p277
aI3
aa(lp278
S'C3_sy/test/shadowing/34.jpg'
p279
aI3
aa(lp280
S'C3_sy/test/shadowing/35.jpg'
p281
aI3
aa(lp282
S'C3_sy/test/shadowing/36.jpg'
p283
aI3
aa(lp284
S'C3_sy/test/shadowing/37.jpg'
p285
aI3
aa(lp286
S'C3_sy/test/shadowing/38.jpg'
p287
aI3
aa(lp288
S'C3_sy/test/shadowing/39.jpg'
p289
aI3
aa(lp290
S'C3_sy/test/shadowing/4.jpg'
p291
aI3
aa(lp292
S'C3_sy/test/shadowing/40.jpg'
p293
aI3
aa(lp294
S'C3_sy/test/shadowing/41.jpg'
p295
aI3
aa(lp296
S'C3_sy/test/shadowing/42.jpg'
p297
aI3
aa(lp298
S'C3_sy/test/shadowing/43.jpg'
p299
aI3
aa(lp300
S'C3_sy/test/shadowing/44.jpg'
p301
aI3
aa(lp302
S'C3_sy/test/shadowing/45.jpg'
p303
aI3
aa(lp304
S'C3_sy/test/shadowing/46.jpg'
p305
aI3
aa(lp306
S'C3_sy/test/shadowing/47.jpg'
p307
aI3
aa(lp308
S'C3_sy/test/shadowing/5.jpg'
p309
aI3
aa(lp310
S'C3_sy/test/shadowing/6.jpg'
p311
aI3
aa(lp312
S'C3_sy/test/shadowing/7.jpg'
p313
aI3
aa(lp314
S'C3_sy/test/shadowing/8.jpg'
p315
aI3
aa(lp316
S'C3_sy/test/shadowing/9.jpg'
p317
aI3
aasS'tota_data'
p318
(lp319
(lp320
S'C3_sy/test/melt/1.jpg'
p321
aI1
aa(lp322
S'C3_sy/test/melt/10.jpg'
p323
aI1
aa(lp324
S'C3_sy/test/melt/11.jpg'
p325
aI1
aa(lp326
S'C3_sy/test/melt/12.jpg'
p327
aI1
aa(lp328
S'C3_sy/test/melt/13.jpg'
p329
aI1
aa(lp330
S'C3_sy/test/melt/14.jpg'
p331
aI1
aa(lp332
S'C3_sy/test/melt/15.jpg'
p333
aI1
aa(lp334
S'C3_sy/test/melt/16.jpg'
p335
aI1
aa(lp336
S'C3_sy/test/melt/17.jpg'
p337
aI1
aa(lp338
S'C3_sy/test/melt/18.jpg'
p339
aI1
aa(lp340
S'C3_sy/test/melt/19.jpg'
p341
aI1
aa(lp342
S'C3_sy/test/melt/2.jpg'
p343
aI1
aa(lp344
S'C3_sy/test/melt/20.jpg'
p345
aI1
aa(lp346
S'C3_sy/test/melt/21.jpg'
p347
aI1
aa(lp348
S'C3_sy/test/melt/22.jpg'
p349
aI1
aa(lp350
S'C3_sy/test/melt/23.jpg'
p351
aI1
aa(lp352
S'C3_sy/test/melt/24.jpg'
p353
aI1
aa(lp354
S'C3_sy/test/melt/25.jpg'
p355
aI1
aa(lp356
S'C3_sy/test/melt/26.jpg'
p357
aI1
aa(lp358
S'C3_sy/test/melt/27.jpg'
p359
aI1
aa(lp360
S'C3_sy/test/melt/28.jpg'
p361
aI1
aa(lp362
S'C3_sy/test/melt/29.jpg'
p363
aI1
aa(lp364
S'C3_sy/test/melt/3.jpg'
p365
aI1
aa(lp366
S'C3_sy/test/melt/30.jpg'
p367
aI1
aa(lp368
S'C3_sy/test/melt/31.jpg'
p369
aI1
aa(lp370
S'C3_sy/test/melt/32.jpg'
p371
aI1
aa(lp372
S'C3_sy/test/melt/33.jpg'
p373
aI1
aa(lp374
S'C3_sy/test/melt/34.jpg'
p375
aI1
aa(lp376
S'C3_sy/test/melt/35.jpg'
p377
aI1
aa(lp378
S'C3_sy/test/melt/36.jpg'
p379
aI1
aa(lp380
S'C3_sy/test/melt/37.jpg'
p381
aI1
aa(lp382
S'C3_sy/test/melt/38.jpg'
p383
aI1
aa(lp384
S'C3_sy/test/melt/39.jpg'
p385
aI1
aa(lp386
S'C3_sy/test/melt/4.jpg'
p387
aI1
aa(lp388
S'C3_sy/test/melt/40.jpg'
p389
aI1
aa(lp390
S'C3_sy/test/melt/41.jpg'
p391
aI1
aa(lp392
S'C3_sy/test/melt/42.jpg'
p393
aI1
aa(lp394
S'C3_sy/test/melt/43.jpg'
p395
aI1
aa(lp396
S'C3_sy/test/melt/44.jpg'
p397
aI1
aa(lp398
S'C3_sy/test/melt/45.jpg'
p399
aI1
aa(lp400
S'C3_sy/test/melt/46.jpg'
p401
aI1
aa(lp402
S'C3_sy/test/melt/47.jpg'
p403
aI1
aa(lp404
S'C3_sy/test/melt/48.jpg'
p405
aI1
aa(lp406
S'C3_sy/test/melt/49.jpg'
p407
aI1
aa(lp408
S'C3_sy/test/melt/5.jpg'
p409
aI1
aa(lp410
S'C3_sy/test/melt/50.jpg'
p411
aI1
aa(lp412
S'C3_sy/test/melt/51.jpg'
p413
aI1
aa(lp414
S'C3_sy/test/melt/52.jpg'
p415
aI1
aa(lp416
S'C3_sy/test/melt/53.jpg'
p417
aI1
aa(lp418
S'C3_sy/test/melt/54.jpg'
p419
aI1
aa(lp420
S'C3_sy/test/melt/55.jpg'
p421
aI1
aa(lp422
S'C3_sy/test/melt/56.jpg'
p423
aI1
aa(lp424
S'C3_sy/test/melt/57.jpg'
p425
aI1
aa(lp426
S'C3_sy/test/melt/58.jpg'
p427
aI1
aa(lp428
S'C3_sy/test/melt/6.jpg'
p429
aI1
aa(lp430
S'C3_sy/test/melt/7.jpg'
p431
aI1
aa(lp432
S'C3_sy/test/melt/8.jpg'
p433
aI1
aa(lp434
S'C3_sy/test/melt/9.jpg'
p435
aI1
aa(lp436
S'C3_sy/test/plus_metal/1.jpg'
p437
aI2
aa(lp438
S'C3_sy/test/plus_metal/10.jpg'
p439
aI2
aa(lp440
S'C3_sy/test/plus_metal/11.jpg'
p441
aI2
aa(lp442
S'C3_sy/test/plus_metal/12.jpg'
p443
aI2
aa(lp444
S'C3_sy/test/plus_metal/13.jpg'
p445
aI2
aa(lp446
S'C3_sy/test/plus_metal/14.jpg'
p447
aI2
aa(lp448
S'C3_sy/test/plus_metal/15.jpg'
p449
aI2
aa(lp450
S'C3_sy/test/plus_metal/16.jpg'
p451
aI2
aa(lp452
S'C3_sy/test/plus_metal/17.jpg'
p453
aI2
aa(lp454
S'C3_sy/test/plus_metal/18.jpg'
p455
aI2
aa(lp456
S'C3_sy/test/plus_metal/19.jpg'
p457
aI2
aa(lp458
S'C3_sy/test/plus_metal/2.jpg'
p459
aI2
aa(lp460
S'C3_sy/test/plus_metal/20.jpg'
p461
aI2
aa(lp462
S'C3_sy/test/plus_metal/21.jpg'
p463
aI2
aa(lp464
S'C3_sy/test/plus_metal/22.jpg'
p465
aI2
aa(lp466
S'C3_sy/test/plus_metal/23.jpg'
p467
aI2
aa(lp468
S'C3_sy/test/plus_metal/24.jpg'
p469
aI2
aa(lp470
S'C3_sy/test/plus_metal/25.jpg'
p471
aI2
aa(lp472
S'C3_sy/test/plus_metal/26.jpg'
p473
aI2
aa(lp474
S'C3_sy/test/plus_metal/27.jpg'
p475
aI2
aa(lp476
S'C3_sy/test/plus_metal/28.jpg'
p477
aI2
aa(lp478
S'C3_sy/test/plus_metal/29.jpg'
p479
aI2
aa(lp480
S'C3_sy/test/plus_metal/3.jpg'
p481
aI2
aa(lp482
S'C3_sy/test/plus_metal/30.jpg'
p483
aI2
aa(lp484
S'C3_sy/test/plus_metal/31.jpg'
p485
aI2
aa(lp486
S'C3_sy/test/plus_metal/32.jpg'
p487
aI2
aa(lp488
S'C3_sy/test/plus_metal/33.jpg'
p489
aI2
aa(lp490
S'C3_sy/test/plus_metal/34.jpg'
p491
aI2
aa(lp492
S'C3_sy/test/plus_metal/35.jpg'
p493
aI2
aa(lp494
S'C3_sy/test/plus_metal/36.jpg'
p495
aI2
aa(lp496
S'C3_sy/test/plus_metal/37.jpg'
p497
aI2
aa(lp498
S'C3_sy/test/plus_metal/38.jpg'
p499
aI2
aa(lp500
S'C3_sy/test/plus_metal/39.jpg'
p501
aI2
aa(lp502
S'C3_sy/test/plus_metal/4.jpg'
p503
aI2
aa(lp504
S'C3_sy/test/plus_metal/40.jpg'
p505
aI2
aa(lp506
S'C3_sy/test/plus_metal/41.jpg'
p507
aI2
aa(lp508
S'C3_sy/test/plus_metal/42.jpg'
p509
aI2
aa(lp510
S'C3_sy/test/plus_metal/43.jpg'
p511
aI2
aa(lp512
S'C3_sy/test/plus_metal/44.jpg'
p513
aI2
aa(lp514
S'C3_sy/test/plus_metal/45.jpg'
p515
aI2
aa(lp516
S'C3_sy/test/plus_metal/46.jpg'
p517
aI2
aa(lp518
S'C3_sy/test/plus_metal/47.jpg'
p519
aI2
aa(lp520
S'C3_sy/test/plus_metal/48.jpg'
p521
aI2
aa(lp522
S'C3_sy/test/plus_metal/49.jpg'
p523
aI2
aa(lp524
S'C3_sy/test/plus_metal/5.jpg'
p525
aI2
aa(lp526
S'C3_sy/test/plus_metal/50.jpg'
p527
aI2
aa(lp528
S'C3_sy/test/plus_metal/51.jpg'
p529
aI2
aa(lp530
S'C3_sy/test/plus_metal/52.jpg'
p531
aI2
aa(lp532
S'C3_sy/test/plus_metal/6.jpg'
p533
aI2
aa(lp534
S'C3_sy/test/plus_metal/7.jpg'
p535
aI2
aa(lp536
S'C3_sy/test/plus_metal/8.jpg'
p537
aI2
aa(lp538
S'C3_sy/test/plus_metal/9.jpg'
p539
aI2
aa(lp540
S'C3_sy/test/shadowing/1.jpg'
p541
aI3
aa(lp542
S'C3_sy/test/shadowing/10.jpg'
p543
aI3
aa(lp544
S'C3_sy/test/shadowing/11.jpg'
p545
aI3
aa(lp546
S'C3_sy/test/shadowing/12.jpg'
p547
aI3
aa(lp548
S'C3_sy/test/shadowing/13.jpg'
p549
aI3
aa(lp550
S'C3_sy/test/shadowing/14.jpg'
p551
aI3
aa(lp552
S'C3_sy/test/shadowing/15.jpg'
p553
aI3
aa(lp554
S'C3_sy/test/shadowing/16.jpg'
p555
aI3
aa(lp556
S'C3_sy/test/shadowing/17.jpg'
p557
aI3
aa(lp558
S'C3_sy/test/shadowing/18.jpg'
p559
aI3
aa(lp560
S'C3_sy/test/shadowing/19.jpg'
p561
aI3
aa(lp562
S'C3_sy/test/shadowing/2.jpg'
p563
aI3
aa(lp564
S'C3_sy/test/shadowing/20.jpg'
p565
aI3
aa(lp566
S'C3_sy/test/shadowing/21.jpg'
p567
aI3
aa(lp568
S'C3_sy/test/shadowing/22.jpg'
p569
aI3
aa(lp570
S'C3_sy/test/shadowing/23.jpg'
p571
aI3
aa(lp572
S'C3_sy/test/shadowing/24.jpg'
p573
aI3
aa(lp574
S'C3_sy/test/shadowing/25.jpg'
p575
aI3
aa(lp576
S'C3_sy/test/shadowing/26.jpg'
p577
aI3
aa(lp578
S'C3_sy/test/shadowing/27.jpg'
p579
aI3
aa(lp580
S'C3_sy/test/shadowing/28.jpg'
p581
aI3
aa(lp582
S'C3_sy/test/shadowing/29.jpg'
p583
aI3
aa(lp584
S'C3_sy/test/shadowing/3.jpg'
p585
aI3
aa(lp586
S'C3_sy/test/shadowing/30.jpg'
p587
aI3
aa(lp588
S'C3_sy/test/shadowing/31.jpg'
p589
aI3
aa(lp590
S'C3_sy/test/shadowing/32.jpg'
p591
aI3
aa(lp592
S'C3_sy/test/shadowing/33.jpg'
p593
aI3
aa(lp594
S'C3_sy/test/shadowing/34.jpg'
p595
aI3
aa(lp596
S'C3_sy/test/shadowing/35.jpg'
p597
aI3
aa(lp598
S'C3_sy/test/shadowing/36.jpg'
p599
aI3
aa(lp600
S'C3_sy/test/shadowing/37.jpg'
p601
aI3
aa(lp602
S'C3_sy/test/shadowing/38.jpg'
p603
aI3
aa(lp604
S'C3_sy/test/shadowing/39.jpg'
p605
aI3
aa(lp606
S'C3_sy/test/shadowing/4.jpg'
p607
aI3
aa(lp608
S'C3_sy/test/shadowing/40.jpg'
p609
aI3
aa(lp610
S'C3_sy/test/shadowing/41.jpg'
p611
aI3
aa(lp612
S'C3_sy/test/shadowing/42.jpg'
p613
aI3
aa(lp614
S'C3_sy/test/shadowing/43.jpg'
p615
aI3
aa(lp616
S'C3_sy/test/shadowing/44.jpg'
p617
aI3
aa(lp618
S'C3_sy/test/shadowing/45.jpg'
p619
aI3
aa(lp620
S'C3_sy/test/shadowing/46.jpg'
p621
aI3
aa(lp622
S'C3_sy/test/shadowing/47.jpg'
p623
aI3
aa(lp624
S'C3_sy/test/shadowing/5.jpg'
p625
aI3
aa(lp626
S'C3_sy/test/shadowing/6.jpg'
p627
aI3
aa(lp628
S'C3_sy/test/shadowing/7.jpg'
p629
aI3
aa(lp630
S'C3_sy/test/shadowing/8.jpg'
p631
aI3
aa(lp632
S'C3_sy/test/shadowing/9.jpg'
p633
aI3
aa(lp634
S'C3_sy/train/melt/1.jpg'
p635
aI1
aa(lp636
S'C3_sy/train/melt/10.jpg'
p637
aI1
aa(lp638
S'C3_sy/train/melt/11.jpg'
p639
aI1
aa(lp640
S'C3_sy/train/melt/12.jpg'
p641
aI1
aa(lp642
S'C3_sy/train/melt/13.jpg'
p643
aI1
aa(lp644
S'C3_sy/train/melt/14.jpg'
p645
aI1
aa(lp646
S'C3_sy/train/melt/15.jpg'
p647
aI1
aa(lp648
S'C3_sy/train/melt/16.jpg'
p649
aI1
aa(lp650
S'C3_sy/train/melt/17.jpg'
p651
aI1
aa(lp652
S'C3_sy/train/melt/18.jpg'
p653
aI1
aa(lp654
S'C3_sy/train/melt/19.jpg'
p655
aI1
aa(lp656
S'C3_sy/train/melt/2.jpg'
p657
aI1
aa(lp658
S'C3_sy/train/melt/20.jpg'
p659
aI1
aa(lp660
S'C3_sy/train/melt/21.jpg'
p661
aI1
aa(lp662
S'C3_sy/train/melt/22.jpg'
p663
aI1
aa(lp664
S'C3_sy/train/melt/23.jpg'
p665
aI1
aa(lp666
S'C3_sy/train/melt/24.jpg'
p667
aI1
aa(lp668
S'C3_sy/train/melt/25.jpg'
p669
aI1
aa(lp670
S'C3_sy/train/melt/26.jpg'
p671
aI1
aa(lp672
S'C3_sy/train/melt/27.jpg'
p673
aI1
aa(lp674
S'C3_sy/train/melt/28.jpg'
p675
aI1
aa(lp676
S'C3_sy/train/melt/29.jpg'
p677
aI1
aa(lp678
S'C3_sy/train/melt/3.jpg'
p679
aI1
aa(lp680
S'C3_sy/train/melt/30.jpg'
p681
aI1
aa(lp682
S'C3_sy/train/melt/31.jpg'
p683
aI1
aa(lp684
S'C3_sy/train/melt/32.jpg'
p685
aI1
aa(lp686
S'C3_sy/train/melt/33.jpg'
p687
aI1
aa(lp688
S'C3_sy/train/melt/34.jpg'
p689
aI1
aa(lp690
S'C3_sy/train/melt/35.jpg'
p691
aI1
aa(lp692
S'C3_sy/train/melt/36.jpg'
p693
aI1
aa(lp694
S'C3_sy/train/melt/37.jpg'
p695
aI1
aa(lp696
S'C3_sy/train/melt/38.jpg'
p697
aI1
aa(lp698
S'C3_sy/train/melt/39.jpg'
p699
aI1
aa(lp700
S'C3_sy/train/melt/4.jpg'
p701
aI1
aa(lp702
S'C3_sy/train/melt/40.jpg'
p703
aI1
aa(lp704
S'C3_sy/train/melt/41.jpg'
p705
aI1
aa(lp706
S'C3_sy/train/melt/42.jpg'
p707
aI1
aa(lp708
S'C3_sy/train/melt/43.jpg'
p709
aI1
aa(lp710
S'C3_sy/train/melt/44.jpg'
p711
aI1
aa(lp712
S'C3_sy/train/melt/45.jpg'
p713
aI1
aa(lp714
S'C3_sy/train/melt/46.jpg'
p715
aI1
aa(lp716
S'C3_sy/train/melt/47.jpg'
p717
aI1
aa(lp718
S'C3_sy/train/melt/48.jpg'
p719
aI1
aa(lp720
S'C3_sy/train/melt/49.jpg'
p721
aI1
aa(lp722
S'C3_sy/train/melt/5.jpg'
p723
aI1
aa(lp724
S'C3_sy/train/melt/50.jpg'
p725
aI1
aa(lp726
S'C3_sy/train/melt/51.jpg'
p727
aI1
aa(lp728
S'C3_sy/train/melt/52.jpg'
p729
aI1
aa(lp730
S'C3_sy/train/melt/53.jpg'
p731
aI1
aa(lp732
S'C3_sy/train/melt/54.jpg'
p733
aI1
aa(lp734
S'C3_sy/train/melt/55.jpg'
p735
aI1
aa(lp736
S'C3_sy/train/melt/56.jpg'
p737
aI1
aa(lp738
S'C3_sy/train/melt/57.jpg'
p739
aI1
aa(lp740
S'C3_sy/train/melt/58.jpg'
p741
aI1
aa(lp742
S'C3_sy/train/melt/6.jpg'
p743
aI1
aa(lp744
S'C3_sy/train/melt/7.jpg'
p745
aI1
aa(lp746
S'C3_sy/train/melt/8.jpg'
p747
aI1
aa(lp748
S'C3_sy/train/melt/9.jpg'
p749
aI1
aa(lp750
S'C3_sy/train/plus_metal/1.jpg'
p751
aI2
aa(lp752
S'C3_sy/train/plus_metal/10.jpg'
p753
aI2
aa(lp754
S'C3_sy/train/plus_metal/11.jpg'
p755
aI2
aa(lp756
S'C3_sy/train/plus_metal/12.jpg'
p757
aI2
aa(lp758
S'C3_sy/train/plus_metal/13.jpg'
p759
aI2
aa(lp760
S'C3_sy/train/plus_metal/14.jpg'
p761
aI2
aa(lp762
S'C3_sy/train/plus_metal/15.jpg'
p763
aI2
aa(lp764
S'C3_sy/train/plus_metal/16.jpg'
p765
aI2
aa(lp766
S'C3_sy/train/plus_metal/17.jpg'
p767
aI2
aa(lp768
S'C3_sy/train/plus_metal/18.jpg'
p769
aI2
aa(lp770
S'C3_sy/train/plus_metal/19.jpg'
p771
aI2
aa(lp772
S'C3_sy/train/plus_metal/2.jpg'
p773
aI2
aa(lp774
S'C3_sy/train/plus_metal/20.jpg'
p775
aI2
aa(lp776
S'C3_sy/train/plus_metal/21.jpg'
p777
aI2
aa(lp778
S'C3_sy/train/plus_metal/22.jpg'
p779
aI2
aa(lp780
S'C3_sy/train/plus_metal/23.jpg'
p781
aI2
aa(lp782
S'C3_sy/train/plus_metal/24.jpg'
p783
aI2
aa(lp784
S'C3_sy/train/plus_metal/25.jpg'
p785
aI2
aa(lp786
S'C3_sy/train/plus_metal/26.jpg'
p787
aI2
aa(lp788
S'C3_sy/train/plus_metal/27.jpg'
p789
aI2
aa(lp790
S'C3_sy/train/plus_metal/28.jpg'
p791
aI2
aa(lp792
S'C3_sy/train/plus_metal/29.jpg'
p793
aI2
aa(lp794
S'C3_sy/train/plus_metal/3.jpg'
p795
aI2
aa(lp796
S'C3_sy/train/plus_metal/30.jpg'
p797
aI2
aa(lp798
S'C3_sy/train/plus_metal/31.jpg'
p799
aI2
aa(lp800
S'C3_sy/train/plus_metal/32.jpg'
p801
aI2
aa(lp802
S'C3_sy/train/plus_metal/33.jpg'
p803
aI2
aa(lp804
S'C3_sy/train/plus_metal/34.jpg'
p805
aI2
aa(lp806
S'C3_sy/train/plus_metal/35.jpg'
p807
aI2
aa(lp808
S'C3_sy/train/plus_metal/36.jpg'
p809
aI2
aa(lp810
S'C3_sy/train/plus_metal/37.jpg'
p811
aI2
aa(lp812
S'C3_sy/train/plus_metal/38.jpg'
p813
aI2
aa(lp814
S'C3_sy/train/plus_metal/39.jpg'
p815
aI2
aa(lp816
S'C3_sy/train/plus_metal/4.jpg'
p817
aI2
aa(lp818
S'C3_sy/train/plus_metal/40.jpg'
p819
aI2
aa(lp820
S'C3_sy/train/plus_metal/41.jpg'
p821
aI2
aa(lp822
S'C3_sy/train/plus_metal/42.jpg'
p823
aI2
aa(lp824
S'C3_sy/train/plus_metal/43.jpg'
p825
aI2
aa(lp826
S'C3_sy/train/plus_metal/44.jpg'
p827
aI2
aa(lp828
S'C3_sy/train/plus_metal/45.jpg'
p829
aI2
aa(lp830
S'C3_sy/train/plus_metal/46.jpg'
p831
aI2
aa(lp832
S'C3_sy/train/plus_metal/47.jpg'
p833
aI2
aa(lp834
S'C3_sy/train/plus_metal/48.jpg'
p835
aI2
aa(lp836
S'C3_sy/train/plus_metal/49.jpg'
p837
aI2
aa(lp838
S'C3_sy/train/plus_metal/5.jpg'
p839
aI2
aa(lp840
S'C3_sy/train/plus_metal/50.jpg'
p841
aI2
aa(lp842
S'C3_sy/train/plus_metal/51.jpg'
p843
aI2
aa(lp844
S'C3_sy/train/plus_metal/52.jpg'
p845
aI2
aa(lp846
S'C3_sy/train/plus_metal/53.jpg'
p847
aI2
aa(lp848
S'C3_sy/train/plus_metal/54.jpg'
p849
aI2
aa(lp850
S'C3_sy/train/plus_metal/6.jpg'
p851
aI2
aa(lp852
S'C3_sy/train/plus_metal/7.jpg'
p853
aI2
aa(lp854
S'C3_sy/train/plus_metal/8.jpg'
p855
aI2
aa(lp856
S'C3_sy/train/plus_metal/9.jpg'
p857
aI2
aa(lp858
S'C3_sy/train/shadowing/1.jpg'
p859
aI3
aa(lp860
S'C3_sy/train/shadowing/10.jpg'
p861
aI3
aa(lp862
S'C3_sy/train/shadowing/11.jpg'
p863
aI3
aa(lp864
S'C3_sy/train/shadowing/12.jpg'
p865
aI3
aa(lp866
S'C3_sy/train/shadowing/13.jpg'
p867
aI3
aa(lp868
S'C3_sy/train/shadowing/14.jpg'
p869
aI3
aa(lp870
S'C3_sy/train/shadowing/15.jpg'
p871
aI3
aa(lp872
S'C3_sy/train/shadowing/16.jpg'
p873
aI3
aa(lp874
S'C3_sy/train/shadowing/17.jpg'
p875
aI3
aa(lp876
S'C3_sy/train/shadowing/18.jpg'
p877
aI3
aa(lp878
S'C3_sy/train/shadowing/19.jpg'
p879
aI3
aa(lp880
S'C3_sy/train/shadowing/2.jpg'
p881
aI3
aa(lp882
S'C3_sy/train/shadowing/20.jpg'
p883
aI3
aa(lp884
S'C3_sy/train/shadowing/21.jpg'
p885
aI3
aa(lp886
S'C3_sy/train/shadowing/22.jpg'
p887
aI3
aa(lp888
S'C3_sy/train/shadowing/23.jpg'
p889
aI3
aa(lp890
S'C3_sy/train/shadowing/24.jpg'
p891
aI3
aa(lp892
S'C3_sy/train/shadowing/25.jpg'
p893
aI3
aa(lp894
S'C3_sy/train/shadowing/26.jpg'
p895
aI3
aa(lp896
S'C3_sy/train/shadowing/27.jpg'
p897
aI3
aa(lp898
S'C3_sy/train/shadowing/28.jpg'
p899
aI3
aa(lp900
S'C3_sy/train/shadowing/29.jpg'
p901
aI3
aa(lp902
S'C3_sy/train/shadowing/3.jpg'
p903
aI3
aa(lp904
S'C3_sy/train/shadowing/30.jpg'
p905
aI3
aa(lp906
S'C3_sy/train/shadowing/31.jpg'
p907
aI3
aa(lp908
S'C3_sy/train/shadowing/32.jpg'
p909
aI3
aa(lp910
S'C3_sy/train/shadowing/33.jpg'
p911
aI3
aa(lp912
S'C3_sy/train/shadowing/34.jpg'
p913
aI3
aa(lp914
S'C3_sy/train/shadowing/35.jpg'
p915
aI3
aa(lp916
S'C3_sy/train/shadowing/36.jpg'
p917
aI3
aa(lp918
S'C3_sy/train/shadowing/37.jpg'
p919
aI3
aa(lp920
S'C3_sy/train/shadowing/38.jpg'
p921
aI3
aa(lp922
S'C3_sy/train/shadowing/39.jpg'
p923
aI3
aa(lp924
S'C3_sy/train/shadowing/4.jpg'
p925
aI3
aa(lp926
S'C3_sy/train/shadowing/40.jpg'
p927
aI3
aa(lp928
S'C3_sy/train/shadowing/41.jpg'
p929
aI3
aa(lp930
S'C3_sy/train/shadowing/42.jpg'
p931
aI3
aa(lp932
S'C3_sy/train/shadowing/43.jpg'
p933
aI3
aa(lp934
S'C3_sy/train/shadowing/44.jpg'
p935
aI3
aa(lp936
S'C3_sy/train/shadowing/45.jpg'
p937
aI3
aa(lp938
S'C3_sy/train/shadowing/46.jpg'
p939
aI3
aa(lp940
S'C3_sy/train/shadowing/47.jpg'
p941
aI3
aa(lp942
S'C3_sy/train/shadowing/48.jpg'
p943
aI3
aa(lp944
S'C3_sy/train/shadowing/49.jpg'
p945
aI3
aa(lp946
S'C3_sy/train/shadowing/5.jpg'
p947
aI3
aa(lp948
S'C3_sy/train/shadowing/50.jpg'
p949
aI3
aa(lp950
S'C3_sy/train/shadowing/51.jpg'
p951
aI3
aa(lp952
S'C3_sy/train/shadowing/52.jpg'
p953
aI3
aa(lp954
S'C3_sy/train/shadowing/53.jpg'
p955
aI3
aa(lp956
S'C3_sy/train/shadowing/54.jpg'
p957
aI3
aa(lp958
S'C3_sy/train/shadowing/55.jpg'
p959
aI3
aa(lp960
S'C3_sy/train/shadowing/56.jpg'
p961
aI3
aa(lp962
S'C3_sy/train/shadowing/57.jpg'
p963
aI3
aa(lp964
S'C3_sy/train/shadowing/58.jpg'
p965
aI3
aa(lp966
S'C3_sy/train/shadowing/6.jpg'
p967
aI3
aa(lp968
S'C3_sy/train/shadowing/7.jpg'
p969
aI3
aa(lp970
S'C3_sy/train/shadowing/8.jpg'
p971
aI3
aa(lp972
S'C3_sy/train/shadowing/9.jpg'
p973
aI3
aasS'train_data'
p974
(lp975
(lp976
S'C3_sy/train/melt/1.jpg'
p977
aI1
aa(lp978
S'C3_sy/train/melt/10.jpg'
p979
aI1
aa(lp980
S'C3_sy/train/melt/11.jpg'
p981
aI1
aa(lp982
S'C3_sy/train/melt/12.jpg'
p983
aI1
aa(lp984
S'C3_sy/train/melt/13.jpg'
p985
aI1
aa(lp986
S'C3_sy/train/melt/14.jpg'
p987
aI1
aa(lp988
S'C3_sy/train/melt/15.jpg'
p989
aI1
aa(lp990
S'C3_sy/train/melt/16.jpg'
p991
aI1
aa(lp992
S'C3_sy/train/melt/17.jpg'
p993
aI1
aa(lp994
S'C3_sy/train/melt/18.jpg'
p995
aI1
aa(lp996
S'C3_sy/train/melt/19.jpg'
p997
aI1
aa(lp998
S'C3_sy/train/melt/2.jpg'
p999
aI1
aa(lp1000
S'C3_sy/train/melt/20.jpg'
p1001
aI1
aa(lp1002
S'C3_sy/train/melt/21.jpg'
p1003
aI1
aa(lp1004
S'C3_sy/train/melt/22.jpg'
p1005
aI1
aa(lp1006
S'C3_sy/train/melt/23.jpg'
p1007
aI1
aa(lp1008
S'C3_sy/train/melt/24.jpg'
p1009
aI1
aa(lp1010
S'C3_sy/train/melt/25.jpg'
p1011
aI1
aa(lp1012
S'C3_sy/train/melt/26.jpg'
p1013
aI1
aa(lp1014
S'C3_sy/train/melt/27.jpg'
p1015
aI1
aa(lp1016
S'C3_sy/train/melt/28.jpg'
p1017
aI1
aa(lp1018
S'C3_sy/train/melt/29.jpg'
p1019
aI1
aa(lp1020
S'C3_sy/train/melt/3.jpg'
p1021
aI1
aa(lp1022
S'C3_sy/train/melt/30.jpg'
p1023
aI1
aa(lp1024
S'C3_sy/train/melt/31.jpg'
p1025
aI1
aa(lp1026
S'C3_sy/train/melt/32.jpg'
p1027
aI1
aa(lp1028
S'C3_sy/train/melt/33.jpg'
p1029
aI1
aa(lp1030
S'C3_sy/train/melt/34.jpg'
p1031
aI1
aa(lp1032
S'C3_sy/train/melt/35.jpg'
p1033
aI1
aa(lp1034
S'C3_sy/train/melt/36.jpg'
p1035
aI1
aa(lp1036
S'C3_sy/train/melt/37.jpg'
p1037
aI1
aa(lp1038
S'C3_sy/train/melt/38.jpg'
p1039
aI1
aa(lp1040
S'C3_sy/train/melt/39.jpg'
p1041
aI1
aa(lp1042
S'C3_sy/train/melt/4.jpg'
p1043
aI1
aa(lp1044
S'C3_sy/train/melt/40.jpg'
p1045
aI1
aa(lp1046
S'C3_sy/train/melt/41.jpg'
p1047
aI1
aa(lp1048
S'C3_sy/train/melt/42.jpg'
p1049
aI1
aa(lp1050
S'C3_sy/train/melt/43.jpg'
p1051
aI1
aa(lp1052
S'C3_sy/train/melt/44.jpg'
p1053
aI1
aa(lp1054
S'C3_sy/train/melt/45.jpg'
p1055
aI1
aa(lp1056
S'C3_sy/train/melt/46.jpg'
p1057
aI1
aa(lp1058
S'C3_sy/train/melt/47.jpg'
p1059
aI1
aa(lp1060
S'C3_sy/train/melt/48.jpg'
p1061
aI1
aa(lp1062
S'C3_sy/train/melt/49.jpg'
p1063
aI1
aa(lp1064
S'C3_sy/train/melt/5.jpg'
p1065
aI1
aa(lp1066
S'C3_sy/train/melt/50.jpg'
p1067
aI1
aa(lp1068
S'C3_sy/train/melt/51.jpg'
p1069
aI1
aa(lp1070
S'C3_sy/train/melt/52.jpg'
p1071
aI1
aa(lp1072
S'C3_sy/train/melt/53.jpg'
p1073
aI1
aa(lp1074
S'C3_sy/train/melt/54.jpg'
p1075
aI1
aa(lp1076
S'C3_sy/train/melt/55.jpg'
p1077
aI1
aa(lp1078
S'C3_sy/train/melt/56.jpg'
p1079
aI1
aa(lp1080
S'C3_sy/train/melt/57.jpg'
p1081
aI1
aa(lp1082
S'C3_sy/train/melt/58.jpg'
p1083
aI1
aa(lp1084
S'C3_sy/train/melt/6.jpg'
p1085
aI1
aa(lp1086
S'C3_sy/train/melt/7.jpg'
p1087
aI1
aa(lp1088
S'C3_sy/train/melt/8.jpg'
p1089
aI1
aa(lp1090
S'C3_sy/train/melt/9.jpg'
p1091
aI1
aa(lp1092
S'C3_sy/train/plus_metal/1.jpg'
p1093
aI2
aa(lp1094
S'C3_sy/train/plus_metal/10.jpg'
p1095
aI2
aa(lp1096
S'C3_sy/train/plus_metal/11.jpg'
p1097
aI2
aa(lp1098
S'C3_sy/train/plus_metal/12.jpg'
p1099
aI2
aa(lp1100
S'C3_sy/train/plus_metal/13.jpg'
p1101
aI2
aa(lp1102
S'C3_sy/train/plus_metal/14.jpg'
p1103
aI2
aa(lp1104
S'C3_sy/train/plus_metal/15.jpg'
p1105
aI2
aa(lp1106
S'C3_sy/train/plus_metal/16.jpg'
p1107
aI2
aa(lp1108
S'C3_sy/train/plus_metal/17.jpg'
p1109
aI2
aa(lp1110
S'C3_sy/train/plus_metal/18.jpg'
p1111
aI2
aa(lp1112
S'C3_sy/train/plus_metal/19.jpg'
p1113
aI2
aa(lp1114
S'C3_sy/train/plus_metal/2.jpg'
p1115
aI2
aa(lp1116
S'C3_sy/train/plus_metal/20.jpg'
p1117
aI2
aa(lp1118
S'C3_sy/train/plus_metal/21.jpg'
p1119
aI2
aa(lp1120
S'C3_sy/train/plus_metal/22.jpg'
p1121
aI2
aa(lp1122
S'C3_sy/train/plus_metal/23.jpg'
p1123
aI2
aa(lp1124
S'C3_sy/train/plus_metal/24.jpg'
p1125
aI2
aa(lp1126
S'C3_sy/train/plus_metal/25.jpg'
p1127
aI2
aa(lp1128
S'C3_sy/train/plus_metal/26.jpg'
p1129
aI2
aa(lp1130
S'C3_sy/train/plus_metal/27.jpg'
p1131
aI2
aa(lp1132
S'C3_sy/train/plus_metal/28.jpg'
p1133
aI2
aa(lp1134
S'C3_sy/train/plus_metal/29.jpg'
p1135
aI2
aa(lp1136
S'C3_sy/train/plus_metal/3.jpg'
p1137
aI2
aa(lp1138
S'C3_sy/train/plus_metal/30.jpg'
p1139
aI2
aa(lp1140
S'C3_sy/train/plus_metal/31.jpg'
p1141
aI2
aa(lp1142
S'C3_sy/train/plus_metal/32.jpg'
p1143
aI2
aa(lp1144
S'C3_sy/train/plus_metal/33.jpg'
p1145
aI2
aa(lp1146
S'C3_sy/train/plus_metal/34.jpg'
p1147
aI2
aa(lp1148
S'C3_sy/train/plus_metal/35.jpg'
p1149
aI2
aa(lp1150
S'C3_sy/train/plus_metal/36.jpg'
p1151
aI2
aa(lp1152
S'C3_sy/train/plus_metal/37.jpg'
p1153
aI2
aa(lp1154
S'C3_sy/train/plus_metal/38.jpg'
p1155
aI2
aa(lp1156
S'C3_sy/train/plus_metal/39.jpg'
p1157
aI2
aa(lp1158
S'C3_sy/train/plus_metal/4.jpg'
p1159
aI2
aa(lp1160
S'C3_sy/train/plus_metal/40.jpg'
p1161
aI2
aa(lp1162
S'C3_sy/train/plus_metal/41.jpg'
p1163
aI2
aa(lp1164
S'C3_sy/train/plus_metal/42.jpg'
p1165
aI2
aa(lp1166
S'C3_sy/train/plus_metal/43.jpg'
p1167
aI2
aa(lp1168
S'C3_sy/train/plus_metal/44.jpg'
p1169
aI2
aa(lp1170
S'C3_sy/train/plus_metal/45.jpg'
p1171
aI2
aa(lp1172
S'C3_sy/train/plus_metal/46.jpg'
p1173
aI2
aa(lp1174
S'C3_sy/train/plus_metal/47.jpg'
p1175
aI2
aa(lp1176
S'C3_sy/train/plus_metal/48.jpg'
p1177
aI2
aa(lp1178
S'C3_sy/train/plus_metal/49.jpg'
p1179
aI2
aa(lp1180
S'C3_sy/train/plus_metal/5.jpg'
p1181
aI2
aa(lp1182
S'C3_sy/train/plus_metal/50.jpg'
p1183
aI2
aa(lp1184
S'C3_sy/train/plus_metal/51.jpg'
p1185
aI2
aa(lp1186
S'C3_sy/train/plus_metal/52.jpg'
p1187
aI2
aa(lp1188
S'C3_sy/train/plus_metal/53.jpg'
p1189
aI2
aa(lp1190
S'C3_sy/train/plus_metal/54.jpg'
p1191
aI2
aa(lp1192
S'C3_sy/train/plus_metal/6.jpg'
p1193
aI2
aa(lp1194
S'C3_sy/train/plus_metal/7.jpg'
p1195
aI2
aa(lp1196
S'C3_sy/train/plus_metal/8.jpg'
p1197
aI2
aa(lp1198
S'C3_sy/train/plus_metal/9.jpg'
p1199
aI2
aa(lp1200
S'C3_sy/train/shadowing/1.jpg'
p1201
aI3
aa(lp1202
S'C3_sy/train/shadowing/10.jpg'
p1203
aI3
aa(lp1204
S'C3_sy/train/shadowing/11.jpg'
p1205
aI3
aa(lp1206
S'C3_sy/train/shadowing/12.jpg'
p1207
aI3
aa(lp1208
S'C3_sy/train/shadowing/13.jpg'
p1209
aI3
aa(lp1210
S'C3_sy/train/shadowing/14.jpg'
p1211
aI3
aa(lp1212
S'C3_sy/train/shadowing/15.jpg'
p1213
aI3
aa(lp1214
S'C3_sy/train/shadowing/16.jpg'
p1215
aI3
aa(lp1216
S'C3_sy/train/shadowing/17.jpg'
p1217
aI3
aa(lp1218
S'C3_sy/train/shadowing/18.jpg'
p1219
aI3
aa(lp1220
S'C3_sy/train/shadowing/19.jpg'
p1221
aI3
aa(lp1222
S'C3_sy/train/shadowing/2.jpg'
p1223
aI3
aa(lp1224
S'C3_sy/train/shadowing/20.jpg'
p1225
aI3
aa(lp1226
S'C3_sy/train/shadowing/21.jpg'
p1227
aI3
aa(lp1228
S'C3_sy/train/shadowing/22.jpg'
p1229
aI3
aa(lp1230
S'C3_sy/train/shadowing/23.jpg'
p1231
aI3
aa(lp1232
S'C3_sy/train/shadowing/24.jpg'
p1233
aI3
aa(lp1234
S'C3_sy/train/shadowing/25.jpg'
p1235
aI3
aa(lp1236
S'C3_sy/train/shadowing/26.jpg'
p1237
aI3
aa(lp1238
S'C3_sy/train/shadowing/27.jpg'
p1239
aI3
aa(lp1240
S'C3_sy/train/shadowing/28.jpg'
p1241
aI3
aa(lp1242
S'C3_sy/train/shadowing/29.jpg'
p1243
aI3
aa(lp1244
S'C3_sy/train/shadowing/3.jpg'
p1245
aI3
aa(lp1246
S'C3_sy/train/shadowing/30.jpg'
p1247
aI3
aa(lp1248
S'C3_sy/train/shadowing/31.jpg'
p1249
aI3
aa(lp1250
S'C3_sy/train/shadowing/32.jpg'
p1251
aI3
aa(lp1252
S'C3_sy/train/shadowing/33.jpg'
p1253
aI3
aa(lp1254
S'C3_sy/train/shadowing/34.jpg'
p1255
aI3
aa(lp1256
S'C3_sy/train/shadowing/35.jpg'
p1257
aI3
aa(lp1258
S'C3_sy/train/shadowing/36.jpg'
p1259
aI3
aa(lp1260
S'C3_sy/train/shadowing/37.jpg'
p1261
aI3
aa(lp1262
S'C3_sy/train/shadowing/38.jpg'
p1263
aI3
aa(lp1264
S'C3_sy/train/shadowing/39.jpg'
p1265
aI3
aa(lp1266
S'C3_sy/train/shadowing/4.jpg'
p1267
aI3
aa(lp1268
S'C3_sy/train/shadowing/40.jpg'
p1269
aI3
aa(lp1270
S'C3_sy/train/shadowing/41.jpg'
p1271
aI3
aa(lp1272
S'C3_sy/train/shadowing/42.jpg'
p1273
aI3
aa(lp1274
S'C3_sy/train/shadowing/43.jpg'
p1275
aI3
aa(lp1276
S'C3_sy/train/shadowing/44.jpg'
p1277
aI3
aa(lp1278
S'C3_sy/train/shadowing/45.jpg'
p1279
aI3
aa(lp1280
S'C3_sy/train/shadowing/46.jpg'
p1281
aI3
aa(lp1282
S'C3_sy/train/shadowing/47.jpg'
p1283
aI3
aa(lp1284
S'C3_sy/train/shadowing/48.jpg'
p1285
aI3
aa(lp1286
S'C3_sy/train/shadowing/49.jpg'
p1287
aI3
aa(lp1288
S'C3_sy/train/shadowing/5.jpg'
p1289
aI3
aa(lp1290
S'C3_sy/train/shadowing/50.jpg'
p1291
aI3
aa(lp1292
S'C3_sy/train/shadowing/51.jpg'
p1293
aI3
aa(lp1294
S'C3_sy/train/shadowing/52.jpg'
p1295
aI3
aa(lp1296
S'C3_sy/train/shadowing/53.jpg'
p1297
aI3
aa(lp1298
S'C3_sy/train/shadowing/54.jpg'
p1299
aI3
aa(lp1300
S'C3_sy/train/shadowing/55.jpg'
p1301
aI3
aa(lp1302
S'C3_sy/train/shadowing/56.jpg'
p1303
aI3
aa(lp1304
S'C3_sy/train/shadowing/57.jpg'
p1305
aI3
aa(lp1306
S'C3_sy/train/shadowing/58.jpg'
p1307
aI3
aa(lp1308
S'C3_sy/train/shadowing/6.jpg'
p1309
aI3
aa(lp1310
S'C3_sy/train/shadowing/7.jpg'
p1311
aI3
aa(lp1312
S'C3_sy/train/shadowing/8.jpg'
p1313
aI3
aa(lp1314
S'C3_sy/train/shadowing/9.jpg'
p1315
aI3
aas.